; Function Attrs: mustprogress uwtable
define hidden void @_ZN4lean15register_optionERKNS_4nameES2_NS_15data_value_kindEPKcS5_(ptr noundef nonnull readonly align 8 captures(none) dereferenceable(8) %0, ptr noundef nonnull align 8 dereferenceable(8) %1, i32 noundef %2, ptr noundef %3, ptr noundef %4) local_unnamed_addr #0 personality ptr @__gxx_personality_v0 {
  %6 = alloca %"class.lean::object_ref", align 8
  %7 = alloca %"class.lean::data_value", align 8
  %8 = alloca %"class.lean::string_ref", align 8
  %9 = alloca %"class.lean::string_ref", align 8
  call void @llvm.lifetime.start.p0(i64 8, ptr nonnull %6) #19
  call void @llvm.lifetime.start.p0(i64 8, ptr nonnull %7) #19
  call void @_ZN4lean13mk_data_valueENS_15data_value_kindEPKc(ptr dead_on_unwind nonnull writable sret(%"class.lean::data_value") align 8 %7, i32 noundef %2, ptr noundef %3)
  call void @llvm.lifetime.start.p0(i64 8, ptr nonnull %8) #19
  %10 = invoke noundef ptr @lean_mk_string(ptr noundef nonnull @.str.1)
          to label %11 unwind label %90

11:                                               ; preds = %5
  store ptr %10, ptr %8, align 8, !tbaa !9
  call void @llvm.lifetime.start.p0(i64 8, ptr nonnull %9) #19
  %12 = invoke noundef ptr @lean_mk_string(ptr noundef %4)
          to label %13 unwind label %92

13:                                               ; preds = %11
  store ptr %12, ptr %9, align 8, !tbaa !9
  invoke void @_ZN4lean8mk_cnstrEjRKNS_10object_refES2_S2_S2_j(ptr dead_on_unwind nonnull writable sret(%"class.lean::object_ref") align 8 %6, i32 noundef 0, ptr noundef nonnull align 8 dereferenceable(8) %1, ptr noundef nonnull align 8 dereferenceable(8) %7, ptr noundef nonnull align 8 dereferenceable(8) %8, ptr noundef nonnull align 8 dereferenceable(8) %9, i32 noundef 0)
          to label %14 unwind label %94

14:                                               ; preds = %13
  %15 = load ptr, ptr %9, align 8, !tbaa !9
  %16 = ptrtoint ptr %15 to i64
  %17 = and i64 %16, 1
  %.not.i.i = icmp eq i64 %17, 0
  br i1 %.not.i.i, label %18, label %_ZN4lean10object_refD2Ev.exit

18:                                               ; preds = %14
  %19 = load i32, ptr %15, align 4, !tbaa !19
  %20 = icmp sgt i32 %19, 1
  br i1 %20, label %21, label %23, !prof !22

21:                                               ; preds = %18
  %22 = add nsw i32 %19, -1
  store i32 %22, ptr %15, align 4, !tbaa !19
  br label %_ZN4lean10object_refD2Ev.exit

23:                                               ; preds = %18
  %.not.i.i.i = icmp eq i32 %19, 0
  br i1 %.not.i.i.i, label %_ZN4lean10object_refD2Ev.exit, label %24

24:                                               ; preds = %23
  invoke void @lean_dec_ref_cold(ptr noundef nonnull %15)
          to label %_ZN4lean10object_refD2Ev.exit unwind label %25

25:                                               ; preds = %24
  %26 = landingpad { ptr, i32 }
          catch ptr null
  %27 = extractvalue { ptr, i32 } %26, 0
  call void @__clang_call_terminate(ptr %27) #20
  unreachable

_ZN4lean10object_refD2Ev.exit:                    ; preds = %14, %21, %23, %24
  call void @llvm.lifetime.end.p0(i64 8, ptr nonnull %9) #19
  %28 = load ptr, ptr %8, align 8, !tbaa !9
  %29 = ptrtoint ptr %28 to i64
  %30 = and i64 %29, 1
  %.not.i.i14 = icmp eq i64 %30, 0
  br i1 %.not.i.i14, label %31, label %_ZN4lean10object_refD2Ev.exit16

31:                                               ; preds = %_ZN4lean10object_refD2Ev.exit
  %32 = load i32, ptr %28, align 4, !tbaa !19
  %33 = icmp sgt i32 %32, 1
  br i1 %33, label %34, label %36, !prof !22

34:                                               ; preds = %31
  %35 = add nsw i32 %32, -1
  store i32 %35, ptr %28, align 4, !tbaa !19
  br label %_ZN4lean10object_refD2Ev.exit16

36:                                               ; preds = %31
  %.not.i.i.i15 = icmp eq i32 %32, 0
  br i1 %.not.i.i.i15, label %_ZN4lean10object_refD2Ev.exit16, label %37

37:                                               ; preds = %36
  invoke void @lean_dec_ref_cold(ptr noundef nonnull %28)
          to label %_ZN4lean10object_refD2Ev.exit16 unwind label %38

38:                                               ; preds = %37
  %39 = landingpad { ptr, i32 }
          catch ptr null
  %40 = extractvalue { ptr, i32 } %39, 0
  call void @__clang_call_terminate(ptr %40) #20
  unreachable

_ZN4lean10object_refD2Ev.exit16:                  ; preds = %_ZN4lean10object_refD2Ev.exit, %34, %36, %37
  call void @llvm.lifetime.end.p0(i64 8, ptr nonnull %8) #19
  %41 = load ptr, ptr %7, align 8, !tbaa !9
  %42 = ptrtoint ptr %41 to i64
  %43 = and i64 %42, 1
  %.not.i.i17 = icmp eq i64 %43, 0
  br i1 %.not.i.i17, label %44, label %_ZN4lean10object_refD2Ev.exit19

44:                                               ; preds = %_ZN4lean10object_refD2Ev.exit16
  %45 = load i32, ptr %41, align 4, !tbaa !19
  %46 = icmp sgt i32 %45, 1
  br i1 %46, label %47, label %49, !prof !22

47:                                               ; preds = %44
  %48 = add nsw i32 %45, -1
  store i32 %48, ptr %41, align 4, !tbaa !19
  br label %_ZN4lean10object_refD2Ev.exit19

49:                                               ; preds = %44
  %.not.i.i.i18 = icmp eq i32 %45, 0
  br i1 %.not.i.i.i18, label %_ZN4lean10object_refD2Ev.exit19, label %50

50:                                               ; preds = %49
  invoke void @lean_dec_ref_cold(ptr noundef nonnull %41)
          to label %_ZN4lean10object_refD2Ev.exit19 unwind label %51

51:                                               ; preds = %50
  %52 = landingpad { ptr, i32 }
          catch ptr null
  %53 = extractvalue { ptr, i32 } %52, 0
  call void @__clang_call_terminate(ptr %53) #20
  unreachable

_ZN4lean10object_refD2Ev.exit19:                  ; preds = %_ZN4lean10object_refD2Ev.exit16, %47, %49, %50
  call void @llvm.lifetime.end.p0(i64 8, ptr nonnull %7) #19
  %54 = load ptr, ptr %0, align 8, !tbaa !9
  %55 = ptrtoint ptr %54 to i64
  %56 = and i64 %55, 1
  %.not.i.i20 = icmp eq i64 %56, 0
  br i1 %.not.i.i20, label %57, label %_ZNK4lean10object_ref10to_obj_argEv.exit

57:                                               ; preds = %_ZN4lean10object_refD2Ev.exit19
  %.val.i.i.i = load i32, ptr %54, align 4, !tbaa !19
  %58 = icmp sgt i32 %.val.i.i.i, 0
  br i1 %58, label %59, label %61, !prof !22

59:                                               ; preds = %57
  %60 = add nuw nsw i32 %.val.i.i.i, 1
  store i32 %60, ptr %54, align 4, !tbaa !19
  br label %_ZNK4lean10object_ref10to_obj_argEv.exit

61:                                               ; preds = %57
  %.not.i.i.i21 = icmp eq i32 %.val.i.i.i, 0
  br i1 %.not.i.i.i21, label %_ZNK4lean10object_ref10to_obj_argEv.exit, label %62

62:                                               ; preds = %61
  invoke void @lean_inc_ref_cold(ptr noundef nonnull %54)
          to label %.noexc unwind label %98

.noexc:                                           ; preds = %62
  %.pre.i = load ptr, ptr %0, align 8, !tbaa !9
  br label %_ZNK4lean10object_ref10to_obj_argEv.exit

_ZNK4lean10object_ref10to_obj_argEv.exit:         ; preds = %.noexc, %61, %59, %_ZN4lean10object_refD2Ev.exit19
  %63 = phi ptr [ %54, %_ZN4lean10object_refD2Ev.exit19 ], [ %54, %59 ], [ %54, %61 ], [ %.pre.i, %.noexc ]
  %64 = load ptr, ptr %6, align 8, !tbaa !9
  %65 = ptrtoint ptr %64 to i64
  %66 = and i64 %65, 1
  %.not.i.i22 = icmp eq i64 %66, 0
  br i1 %.not.i.i22, label %67, label %_ZNK4lean10object_ref10to_obj_argEv.exit27

67:                                               ; preds = %_ZNK4lean10object_ref10to_obj_argEv.exit
  %.val.i.i.i23 = load i32, ptr %64, align 4, !tbaa !19
  %68 = icmp sgt i32 %.val.i.i.i23, 0
  br i1 %68, label %69, label %71, !prof !22

69:                                               ; preds = %67
  %70 = add nuw nsw i32 %.val.i.i.i23, 1
  store i32 %70, ptr %64, align 4, !tbaa !19
  br label %_ZNK4lean10object_ref10to_obj_argEv.exit27

71:                                               ; preds = %67
  %.not.i.i.i24 = icmp eq i32 %.val.i.i.i23, 0
  br i1 %.not.i.i.i24, label %_ZNK4lean10object_ref10to_obj_argEv.exit27, label %72

72:                                               ; preds = %71
  invoke void @lean_inc_ref_cold(ptr noundef nonnull %64)
          to label %.noexc26 unwind label %98

.noexc26:                                         ; preds = %72
  %.pre.i25 = load ptr, ptr %6, align 8, !tbaa !9
  br label %_ZNK4lean10object_ref10to_obj_argEv.exit27

_ZNK4lean10object_ref10to_obj_argEv.exit27:       ; preds = %_ZNK4lean10object_ref10to_obj_argEv.exit, %69, %71, %.noexc26
  %73 = phi ptr [ %64, %_ZNK4lean10object_ref10to_obj_argEv.exit ], [ %64, %69 ], [ %64, %71 ], [ %.pre.i25, %.noexc26 ]
  %74 = invoke ptr @lean_register_option(ptr noundef %63, ptr noundef %73, ptr noundef nonnull inttoptr (i64 1 to ptr))
          to label %75 unwind label %98

75:                                               ; preds = %_ZNK4lean10object_ref10to_obj_argEv.exit27
  invoke void @_ZN4lean17consume_io_resultEP11lean_object(ptr noundef %74)
          to label %76 unwind label %98

76:                                               ; preds = %75
  %77 = load ptr, ptr %6, align 8, !tbaa !9
  %78 = ptrtoint ptr %77 to i64
  %79 = and i64 %78, 1
  %.not.i.i28 = icmp eq i64 %79, 0
  br i1 %.not.i.i28, label %80, label %_ZN4lean10object_refD2Ev.exit30

80:                                               ; preds = %76
  %81 = load i32, ptr %77, align 4, !tbaa !19
  %82 = icmp sgt i32 %81, 1
  br i1 %82, label %83, label %85, !prof !22

83:                                               ; preds = %80
  %84 = add nsw i32 %81, -1
  store i32 %84, ptr %77, align 4, !tbaa !19
  br label %_ZN4lean10object_refD2Ev.exit30

85:                                               ; preds = %80
  %.not.i.i.i29 = icmp eq i32 %81, 0
  br i1 %.not.i.i.i29, label %_ZN4lean10object_refD2Ev.exit30, label %86

86:                                               ; preds = %85
  invoke void @lean_dec_ref_cold(ptr noundef nonnull %77)
          to label %_ZN4lean10object_refD2Ev.exit30 unwind label %87

87:                                               ; preds = %86
  %88 = landingpad { ptr, i32 }
          catch ptr null
  %89 = extractvalue { ptr, i32 } %88, 0
  call void @__clang_call_terminate(ptr %89) #20
  unreachable

_ZN4lean10object_refD2Ev.exit30:                  ; preds = %76, %83, %85, %86
  call void @llvm.lifetime.end.p0(i64 8, ptr nonnull %6) #19
  ret void

90:                                               ; preds = %5
  %91 = landingpad { ptr, i32 }
          cleanup
  br label %97

92:                                               ; preds = %11
  %93 = landingpad { ptr, i32 }
          cleanup
  br label %96

94:                                               ; preds = %13
  %95 = landingpad { ptr, i32 }
          cleanup
  call void @_ZN4lean10object_refD2Ev(ptr noundef nonnull align 8 dereferenceable(8) %9) #19
  br label %96

96:                                               ; preds = %94, %92
  %.pn = phi { ptr, i32 } [ %95, %94 ], [ %93, %92 ]
  call void @llvm.lifetime.end.p0(i64 8, ptr nonnull %9) #19
  call void @_ZN4lean10object_refD2Ev(ptr noundef nonnull align 8 dereferenceable(8) %8) #19
  br label %97

97:                                               ; preds = %96, %90
  %.pn.pn = phi { ptr, i32 } [ %.pn, %96 ], [ %91, %90 ]
  call void @llvm.lifetime.end.p0(i64 8, ptr nonnull %8) #19
  call void @_ZN4lean10object_refD2Ev(ptr noundef nonnull align 8 dereferenceable(8) %7) #19
  call void @llvm.lifetime.end.p0(i64 8, ptr nonnull %7) #19
  br label %100

98:                                               ; preds = %72, %62, %75, %_ZNK4lean10object_ref10to_obj_argEv.exit27
  %99 = landingpad { ptr, i32 }
          cleanup
  call void @_ZN4lean10object_refD2Ev(ptr noundef nonnull align 8 dereferenceable(8) %6) #19
  br label %100

100:                                              ; preds = %98, %97
  %.pn11 = phi { ptr, i32 } [ %99, %98 ], [ %.pn.pn, %97 ]
  call void @llvm.lifetime.end.p0(i64 8, ptr nonnull %6) #19
  resume { ptr, i32 } %.pn11
}